(lp1
(lp2
I3
aI0
aI0
aI2
aa(lp3
I4
aI0
aI0
aI2
aa(lp4
I3
aI0
aI0
aI2
aa(lp5
I4
aI0
aI0
aI2
aa(lp6
I4
aI0
aI0
aI2
aa(lp7
I4
aI0
aI0
aI2
aa(lp8
I4
aI0
aI0
aI2
aa(lp9
I3
aI0
aI0
aI2
aa(lp10
I3
aI0
aI0
aI2
aa(lp11
I4
aI0
aI0
aI2
aa(lp12
I3
aI0
aI0
aI2
aa(lp13
I3
aI0
aI0
aI2
aa(lp14
I3
aI0
aI0
aI2
aa(lp15
I5
aI0
aI0
aI2
aa(lp16
I4
aI0
aI0
aI2
aa(lp17
I4
aI0
aI0
aI2
aa(lp18
I4
aI0
aI0
aI2
aa(lp19
I3
aI0
aI0
aI2
aa(lp20
I4
aI0
aI0
aI2
aa(lp21
I3
aI0
aI0
aI2
aa(lp22
I3
aI0
aI0
aI2
aa(lp23
I3
aI0
aI0
aI2
aa(lp24
I3
aI0
aI0
aI2
aa(lp25
I3
aI0
aI0
aI2
aa(lp26
I3
aI0
aI0
aI2
aa(lp27
I3
aI0
aI0
aI2
aa(lp28
I3
aI0
aI0
aI2
aa.