(lp1
(lp2
I3
aI1
aI0
aI0
aa(lp3
I4
aI1
aI0
aI2
aa(lp4
I4
aI1
aI0
aI2
aa(lp5
I3
aI1
aI0
aI0
aa(lp6
I5
aI1
aI0
aI2
aa(lp7
I3
aI1
aI0
aI2
aa(lp8
I3
aI1
aI0
aI0
aa(lp9
I4
aI1
aI0
aI2
aa(lp10
I4
aI2
aI0
aI0
aa(lp11
I4
aI1
aI0
aI0
aa(lp12
I3
aI1
aI0
aI2
aa(lp13
I4
aI1
aI0
aI2
aa(lp14
I3
aI1
aI0
aI2
aa(lp15
I3
aI1
aI0
aI2
aa(lp16
I4
aI1
aI0
aI2
aa(lp17
I3
aI1
aI0
aI0
aa(lp18
I3
aI1
aI0
aI2
aa(lp19
I3
aI1
aI0
aI2
aa(lp20
I3
aI1
aI0
aI0
aa(lp21
I3
aI1
aI0
aI2
aa(lp22
I3
aI1
aI0
aI0
aa(lp23
I3
aI1
aI0
aI0
aa(lp24
I5
aI1
aI0
aI0
aa(lp25
I4
aI1
aI0
aI0
aa(lp26
I5
aI1
aI0
aI2
aa(lp27
I3
aI1
aI0
aI2
aa(lp28
I3
aI1
aI0
aI2
aa(lp29
I5
aI2
aI0
aI0
aa(lp30
I5
aI1
aI0
aI0
aa(lp31
I4
aI1
aI0
aI2
aa(lp32
I4
aI1
aI0
aI2
aa(lp33
I3
aI1
aI0
aI2
aa.