(lp1
(lp2
I6
aI0
aI0
aI2
aa(lp3
I6
aI0
aI0
aI2
aa(lp4
I5
aI0
aI0
aI2
aa(lp5
I4
aI0
aI0
aI2
aa(lp6
I4
aI0
aI0
aI2
aa(lp7
I6
aI0
aI0
aI2
aa(lp8
I4
aI0
aI0
aI2
aa(lp9
I5
aI0
aI0
aI2
aa(lp10
I4
aI0
aI0
aI2
aa(lp11
I5
aI0
aI0
aI2
aa(lp12
I5
aI0
aI0
aI2
aa(lp13
I6
aI0
aI0
aI2
aa(lp14
I3
aI0
aI0
aI2
aa(lp15
I5
aI0
aI0
aI2
aa(lp16
I6
aI0
aI0
aI2
aa(lp17
I6
aI0
aI0
aI0
aa(lp18
I5
aI0
aI0
aI2
aa(lp19
I6
aI0
aI0
aI2
aa(lp20
I7
aI0
aI0
aI0
aa(lp21
I3
aI0
aI0
aI2
aa(lp22
I5
aI0
aI0
aI2
aa(lp23
I5
aI0
aI0
aI2
aa(lp24
I4
aI0
aI0
aI2
aa(lp25
I5
aI0
aI0
aI2
aa(lp26
I5
aI0
aI0
aI0
aa(lp27
I6
aI0
aI0
aI2
aa(lp28
I3
aI0
aI0
aI2
aa.