(lp1
(lp2
I3
aI0
aI0
aI0
aa(lp3
I2
aI0
aI0
aI0
aa(lp4
I8
aI0
aI0
aI0
aa(lp5
I17
aI9
aI0
aI16
aa(lp6
I6
aI0
aI0
aI0
aa(lp7
I2
aI0
aI0
aI0
aa(lp8
I5
aI0
aI0
aI0
aa(lp9
I2
aI0
aI0
aI0
aa(lp10
I3
aI0
aI0
aI0
aa(lp11
I12
aI6
aI0
aI12
aa(lp12
I3
aI0
aI0
aI0
aa(lp13
I5
aI0
aI0
aI0
aa(lp14
I2
aI0
aI0
aI0
aa(lp15
I4
aI0
aI0
aI0
aa(lp16
I3
aI0
aI0
aI0
aa(lp17
I3
aI0
aI0
aI0
aa(lp18
I2
aI0
aI0
aI0
aa(lp19
I2
aI0
aI0
aI0
aa(lp20
I3
aI0
aI0
aI0
aa(lp21
I5
aI0
aI0
aI0
aa(lp22
I5
aI2
aI0
aI4
aa(lp23
I8
aI0
aI0
aI0
aa(lp24
I2
aI0
aI0
aI0
aa(lp25
I3
aI0
aI0
aI0
aa(lp26
I3
aI0
aI0
aI0
aa(lp27
I4
aI0
aI0
aI0
aa(lp28
I5
aI3
aI0
aI4
aa(lp29
I3
aI0
aI0
aI0
aa(lp30
I2
aI0
aI0
aI0
aa(lp31
I4
aI2
aI0
aI4
aa(lp32
I2
aI0
aI0
aI0
aa(lp33
I2
aI0
aI0
aI0
aa(lp34
I2
aI0
aI0
aI0
aa(lp35
I7
aI0
aI0
aI0
aa(lp36
I3
aI0
aI0
aI0
aa.