(lp1
(lp2
I6
aI3
aI0
aI6
aa(lp3
I4
aI2
aI0
aI4
aa(lp4
I9
aI0
aI0
aI0
aa(lp5
I8
aI4
aI0
aI8
aa(lp6
I6
aI3
aI0
aI6
aa(lp7
I5
aI3
aI0
aI10
aa(lp8
I2
aI0
aI0
aI0
aa(lp9
I4
aI2
aI0
aI4
aa(lp10
I6
aI3
aI0
aI6
aa(lp11
I18
aI9
aI0
aI18
aa(lp12
I2
aI0
aI0
aI0
aa(lp13
I4
aI2
aI0
aI4
aa(lp14
I6
aI3
aI0
aI6
aa(lp15
I4
aI2
aI0
aI4
aa(lp16
I4
aI2
aI0
aI4
aa(lp17
I6
aI3
aI0
aI6
aa(lp18
I9
aI4
aI0
aI8
aa(lp19
I3
aI0
aI0
aI0
aa(lp20
I4
aI2
aI0
aI4
aa(lp21
I2
aI0
aI0
aI0
aa(lp22
I2
aI0
aI0
aI0
aa(lp23
I17
aI8
aI0
aI16
aa(lp24
I4
aI2
aI0
aI4
aa(lp25
I6
aI3
aI0
aI6
aa(lp26
I3
aI1
aI0
aI2
aa(lp27
I8
aI4
aI0
aI8
aa(lp28
I4
aI2
aI0
aI4
aa(lp29
I4
aI2
aI0
aI4
aa.