(lp1
(lp2
I4
aI0
aI0
aI0
aa(lp3
I7
aI0
aI0
aI0
aa(lp4
I5
aI0
aI0
aI0
aa(lp5
I7
aI0
aI0
aI0
aa(lp6
I2
aI0
aI0
aI0
aa(lp7
I6
aI0
aI0
aI0
aa(lp8
I7
aI0
aI0
aI0
aa(lp9
I4
aI0
aI0
aI0
aa(lp10
I2
aI0
aI0
aI0
aa(lp11
I3
aI0
aI0
aI0
aa(lp12
I4
aI0
aI0
aI0
aa(lp13
I3
aI0
aI0
aI0
aa(lp14
I7
aI0
aI0
aI0
aa(lp15
I4
aI0
aI0
aI0
aa(lp16
I2
aI0
aI0
aI0
aa(lp17
I4
aI2
aI0
aI4
aa(lp18
I6
aI0
aI0
aI0
aa(lp19
I6
aI0
aI0
aI0
aa(lp20
I7
aI0
aI0
aI0
aa(lp21
I2
aI0
aI0
aI0
aa(lp22
I2
aI0
aI0
aI0
aa(lp23
I6
aI0
aI0
aI0
aa(lp24
I2
aI0
aI0
aI0
aa(lp25
I2
aI0
aI0
aI0
aa(lp26
I10
aI0
aI0
aI0
aa(lp27
I7
aI0
aI0
aI0
aa(lp28
I2
aI0
aI0
aI0
aa(lp29
I3
aI0
aI0
aI0
aa(lp30
I2
aI0
aI0
aI0
aa(lp31
I5
aI0
aI0
aI0
aa(lp32
I3
aI0
aI0
aI0
aa.