(lp1
(lp2
I3
aI0
aI0
aI2
aa(lp3
I3
aI0
aI0
aI2
aa(lp4
I3
aI0
aI0
aI0
aa(lp5
I3
aI0
aI0
aI2
aa(lp6
I3
aI0
aI0
aI0
aa(lp7
I3
aI0
aI0
aI0
aa(lp8
I4
aI0
aI0
aI0
aa(lp9
I3
aI0
aI0
aI2
aa(lp10
I3
aI0
aI0
aI2
aa(lp11
I3
aI0
aI0
aI2
aa(lp12
I4
aI0
aI0
aI2
aa(lp13
I3
aI0
aI0
aI2
aa(lp14
I5
aI0
aI0
aI2
aa(lp15
I3
aI0
aI0
aI0
aa(lp16
I3
aI0
aI0
aI2
aa(lp17
I3
aI0
aI0
aI0
aa(lp18
I3
aI0
aI0
aI0
aa(lp19
I3
aI0
aI0
aI0
aa(lp20
I3
aI0
aI0
aI0
aa(lp21
I4
aI0
aI0
aI2
aa(lp22
I3
aI0
aI0
aI0
aa(lp23
I3
aI0
aI0
aI0
aa(lp24
I3
aI0
aI0
aI0
aa(lp25
I4
aI0
aI0
aI2
aa(lp26
I4
aI0
aI0
aI2
aa(lp27
I4
aI0
aI0
aI0
aa.