(lp1
(lp2
I6
aI0
aI0
aI2
aa(lp3
I6
aI0
aI0
aI2
aa(lp4
I6
aI0
aI0
aI2
aa(lp5
I5
aI0
aI0
aI2
aa(lp6
I4
aI0
aI0
aI2
aa(lp7
I6
aI0
aI0
aI2
aa(lp8
I7
aI0
aI0
aI2
aa(lp9
I7
aI0
aI0
aI2
aa(lp10
I8
aI0
aI0
aI2
aa(lp11
I7
aI0
aI0
aI2
aa(lp12
I4
aI0
aI0
aI2
aa(lp13
I6
aI0
aI0
aI2
aa(lp14
I5
aI0
aI0
aI2
aa(lp15
I7
aI0
aI0
aI2
aa(lp16
I4
aI0
aI0
aI2
aa(lp17
I7
aI0
aI0
aI2
aa(lp18
I6
aI0
aI0
aI2
aa(lp19
I6
aI0
aI0
aI2
aa(lp20
I6
aI0
aI0
aI2
aa(lp21
I7
aI0
aI0
aI2
aa(lp22
I4
aI0
aI0
aI2
aa(lp23
I7
aI0
aI0
aI2
aa(lp24
I6
aI0
aI0
aI2
aa(lp25
I3
aI0
aI0
aI2
aa(lp26
I6
aI0
aI0
aI2
aa(lp27
I7
aI0
aI0
aI2
aa(lp28
I4
aI0
aI0
aI2
aa(lp29
I6
aI0
aI0
aI2
aa(lp30
I6
aI0
aI0
aI2
aa(lp31
I6
aI0
aI0
aI2
aa(lp32
I4
aI0
aI0
aI2
aa(lp33
I5
aI0
aI0
aI2
aa.