(lp1
(lp2
I5
aI0
aI0
aI2
aa(lp3
I4
aI0
aI0
aI2
aa(lp4
I7
aI0
aI0
aI2
aa(lp5
I5
aI0
aI0
aI2
aa(lp6
I3
aI0
aI0
aI2
aa(lp7
I6
aI0
aI0
aI2
aa(lp8
I3
aI0
aI0
aI2
aa(lp9
I5
aI0
aI0
aI2
aa(lp10
I6
aI0
aI0
aI2
aa(lp11
I4
aI0
aI0
aI2
aa(lp12
I5
aI0
aI0
aI2
aa(lp13
I5
aI0
aI0
aI2
aa(lp14
I4
aI0
aI0
aI2
aa(lp15
I4
aI0
aI0
aI2
aa(lp16
I6
aI0
aI0
aI2
aa(lp17
I4
aI0
aI0
aI2
aa(lp18
I7
aI0
aI0
aI2
aa(lp19
I8
aI1
aI0
aI5
aa(lp20
I5
aI0
aI0
aI2
aa(lp21
I5
aI0
aI0
aI2
aa(lp22
I6
aI0
aI0
aI2
aa(lp23
I5
aI0
aI0
aI2
aa(lp24
I4
aI0
aI0
aI2
aa(lp25
I5
aI0
aI0
aI2
aa(lp26
I5
aI0
aI0
aI2
aa(lp27
I5
aI0
aI0
aI2
aa(lp28
I3
aI0
aI0
aI2
aa(lp29
I6
aI0
aI0
aI2
aa(lp30
I5
aI0
aI0
aI2
aa(lp31
I5
aI0
aI0
aI2
aa.