(lp1
(lp2
I6
aI3
aI0
aI6
aa(lp3
I4
aI2
aI0
aI2
aa(lp4
I16
aI8
aI0
aI14
aa(lp5
I16
aI8
aI0
aI16
aa(lp6
I12
aI6
aI0
aI4
aa(lp7
I4
aI2
aI0
aI4
aa(lp8
I10
aI5
aI0
aI10
aa(lp9
I4
aI2
aI0
aI2
aa(lp10
I6
aI3
aI0
aI4
aa(lp11
I12
aI6
aI0
aI12
aa(lp12
I6
aI3
aI0
aI6
aa(lp13
I10
aI5
aI0
aI6
aa(lp14
I4
aI2
aI0
aI4
aa(lp15
I8
aI4
aI0
aI8
aa(lp16
I6
aI3
aI0
aI0
aa(lp17
I6
aI3
aI0
aI4
aa(lp18
I4
aI2
aI0
aI4
aa(lp19
I4
aI2
aI0
aI4
aa(lp20
I6
aI3
aI0
aI6
aa(lp21
I10
aI5
aI0
aI6
aa(lp22
I6
aI3
aI0
aI6
aa(lp23
I16
aI8
aI0
aI16
aa(lp24
I4
aI2
aI0
aI4
aa(lp25
I6
aI3
aI0
aI6
aa(lp26
I6
aI3
aI0
aI6
aa(lp27
I8
aI4
aI0
aI6
aa(lp28
I4
aI2
aI0
aI4
aa(lp29
I6
aI3
aI0
aI6
aa(lp30
I4
aI2
aI0
aI4
aa(lp31
I4
aI2
aI0
aI4
aa(lp32
I4
aI2
aI0
aI4
aa(lp33
I4
aI2
aI0
aI2
aa(lp34
I4
aI2
aI0
aI2
aa(lp35
I15
aI8
aI0
aI14
aa(lp36
I6
aI3
aI0
aI6
aa.