(lp1
(lp2
I2
aI0
aI0
aI0
aa(lp3
I4
aI0
aI0
aI0
aa(lp4
I3
aI0
aI0
aI0
aa(lp5
I4
aI0
aI0
aI0
aa(lp6
I2
aI0
aI0
aI0
aa(lp7
I6
aI0
aI0
aI0
aa(lp8
I2
aI0
aI0
aI0
aa(lp9
I3
aI0
aI0
aI0
aa(lp10
I2
aI0
aI0
aI0
aa(lp11
I3
aI0
aI0
aI0
aa(lp12
I16
aI8
aI0
aI16
aa(lp13
I14
aI0
aI0
aI0
aa(lp14
I12
aI0
aI0
aI0
aa(lp15
I2
aI0
aI0
aI0
aa(lp16
I3
aI0
aI0
aI0
aa(lp17
I2
aI0
aI0
aI0
aa(lp18
I7
aI0
aI0
aI0
aa(lp19
I4
aI2
aI0
aI4
aa(lp20
I2
aI0
aI0
aI0
aa(lp21
I4
aI2
aI0
aI4
aa(lp22
I3
aI0
aI0
aI0
aa(lp23
I4
aI0
aI0
aI0
aa(lp24
I3
aI0
aI0
aI0
aa(lp25
I2
aI0
aI0
aI0
aa(lp26
I2
aI0
aI0
aI0
aa(lp27
I4
aI0
aI0
aI0
aa(lp28
I6
aI3
aI0
aI6
aa(lp29
I3
aI0
aI0
aI0
aa(lp30
I6
aI3
aI0
aI6
aa(lp31
I3
aI0
aI0
aI0
aa(lp32
I10
aI0
aI0
aI0
aa(lp33
I4
aI0
aI0
aI0
aa(lp34
I2
aI0
aI0
aI0
aa.