(lp1
(lp2
I4
aI0
aI0
aI2
aa(lp3
I5
aI0
aI0
aI2
aa(lp4
I3
aI0
aI0
aI2
aa(lp5
I3
aI0
aI0
aI2
aa(lp6
I5
aI0
aI0
aI2
aa(lp7
I4
aI0
aI0
aI2
aa(lp8
I6
aI0
aI0
aI0
aa(lp9
I3
aI0
aI0
aI0
aa(lp10
I6
aI0
aI0
aI0
aa(lp11
I4
aI0
aI0
aI2
aa(lp12
I5
aI0
aI0
aI2
aa(lp13
I6
aI0
aI0
aI2
aa.