(lp1
(lp2
I3
aI0
aI0
aI0
aa(lp3
I7
aI0
aI0
aI0
aa(lp4
I3
aI0
aI0
aI0
aa(lp5
I3
aI0
aI0
aI0
aa(lp6
I4
aI0
aI0
aI0
aa(lp7
I2
aI0
aI0
aI0
aa(lp8
I4
aI0
aI0
aI0
aa(lp9
I4
aI0
aI0
aI0
aa(lp10
I6
aI3
aI0
aI6
aa(lp11
I2
aI0
aI0
aI0
aa(lp12
I18
aI9
aI0
aI18
aa(lp13
I7
aI0
aI0
aI0
aa(lp14
I12
aI6
aI0
aI12
aa(lp15
I2
aI0
aI0
aI0
aa(lp16
I2
aI0
aI0
aI0
aa(lp17
I2
aI0
aI0
aI0
aa(lp18
I4
aI0
aI0
aI0
aa(lp19
I2
aI0
aI0
aI0
aa(lp20
I4
aI0
aI0
aI0
aa(lp21
I2
aI0
aI0
aI0
aa(lp22
I2
aI0
aI0
aI0
aa(lp23
I4
aI0
aI0
aI0
aa(lp24
I5
aI0
aI0
aI0
aa(lp25
I2
aI0
aI0
aI0
aa(lp26
I7
aI0
aI0
aI0
aa(lp27
I3
aI0
aI0
aI0
aa(lp28
I5
aI0
aI0
aI0
aa(lp29
I2
aI0
aI0
aI0
aa(lp30
I2
aI0
aI0
aI0
aa(lp31
I5
aI0
aI0
aI0
aa(lp32
I2
aI0
aI0
aI0
aa(lp33
I2
aI0
aI0
aI0
aa(lp34
I2
aI0
aI0
aI0
aa(lp35
I7
aI0
aI0
aI0
aa(lp36
I2
aI0
aI0
aI0
aa(lp37
I2
aI0
aI0
aI0
aa(lp38
I6
aI0
aI0
aI0
aa(lp39
I2
aI0
aI0
aI0
aa(lp40
I4
aI2
aI0
aI4
aa(lp41
I3
aI0
aI0
aI0
aa(lp42
I2
aI0
aI0
aI0
aa(lp43
I2
aI0
aI0
aI0
aa(lp44
I2
aI0
aI0
aI0
aa(lp45
I2
aI0
aI0
aI0
aa(lp46
I6
aI0
aI0
aI0
aa(lp47
I4
aI0
aI0
aI0
aa(lp48
I2
aI0
aI0
aI0
aa(lp49
I4
aI0
aI0
aI0
aa(lp50
I2
aI0
aI0
aI0
aa(lp51
I4
aI2
aI0
aI4
aa(lp52
I2
aI0
aI0
aI0
aa(lp53
I6
aI0
aI0
aI0
aa(lp54
I3
aI0
aI0
aI0
aa(lp55
I2
aI0
aI0
aI0
aa(lp56
I2
aI0
aI0
aI0
aa.