(lp1
(lp2
I7
aI0
aI0
aI2
aa(lp3
I5
aI0
aI0
aI2
aa(lp4
I5
aI0
aI0
aI2
aa(lp5
I6
aI0
aI0
aI2
aa(lp6
I4
aI0
aI0
aI2
aa(lp7
I6
aI0
aI0
aI2
aa(lp8
I5
aI0
aI0
aI2
aa(lp9
I5
aI0
aI0
aI2
aa(lp10
I3
aI0
aI0
aI2
aa(lp11
I6
aI0
aI0
aI2
aa(lp12
I5
aI0
aI0
aI2
aa(lp13
I5
aI0
aI0
aI2
aa(lp14
I6
aI0
aI0
aI2
aa(lp15
I3
aI0
aI0
aI2
aa(lp16
I3
aI0
aI0
aI2
aa(lp17
I3
aI0
aI0
aI2
aa(lp18
I6
aI0
aI0
aI2
aa(lp19
I3
aI0
aI0
aI2
aa(lp20
I9
aI0
aI0
aI2
aa(lp21
I6
aI0
aI0
aI2
aa(lp22
I3
aI0
aI0
aI2
aa(lp23
I3
aI0
aI0
aI2
aa(lp24
I4
aI0
aI0
aI2
aa(lp25
I4
aI0
aI0
aI2
aa(lp26
I3
aI0
aI0
aI2
aa(lp27
I5
aI0
aI0
aI2
aa.