(lp1
(lp2
I3
aI0
aI0
aI0
aa(lp3
I2
aI0
aI0
aI0
aa(lp4
I9
aI0
aI0
aI0
aa(lp5
I4
aI0
aI0
aI0
aa(lp6
I3
aI0
aI0
aI0
aa(lp7
I2
aI0
aI0
aI0
aa(lp8
I2
aI0
aI0
aI0
aa(lp9
I2
aI0
aI0
aI0
aa(lp10
I3
aI0
aI0
aI0
aa(lp11
I9
aI0
aI0
aI0
aa(lp12
I2
aI0
aI0
aI0
aa(lp13
I2
aI0
aI0
aI0
aa(lp14
I3
aI0
aI0
aI0
aa(lp15
I2
aI0
aI0
aI0
aa(lp16
I3
aI1
aI0
aI2
aa(lp17
I3
aI0
aI0
aI0
aa(lp18
I5
aI0
aI0
aI0
aa(lp19
I3
aI0
aI0
aI0
aa(lp20
I2
aI0
aI0
aI0
aa(lp21
I2
aI0
aI0
aI0
aa(lp22
I2
aI0
aI0
aI0
aa(lp23
I9
aI0
aI0
aI0
aa(lp24
I2
aI0
aI0
aI0
aa(lp25
I3
aI0
aI0
aI0
aa(lp26
I2
aI0
aI0
aI0
aa(lp27
I4
aI0
aI0
aI0
aa(lp28
I2
aI0
aI0
aI0
aa(lp29
I2
aI0
aI0
aI0
aa.