(lp1
(lp2
I4
aI0
aI0
aI2
aa(lp3
I3
aI0
aI0
aI2
aa(lp4
I4
aI0
aI0
aI2
aa(lp5
I3
aI0
aI0
aI2
aa(lp6
I6
aI0
aI0
aI2
aa(lp7
I4
aI0
aI0
aI2
aa(lp8
I6
aI0
aI0
aI2
aa(lp9
I3
aI0
aI0
aI2
aa(lp10
I5
aI0
aI0
aI2
aa(lp11
I3
aI0
aI0
aI2
aa(lp12
I3
aI0
aI0
aI2
aa(lp13
I6
aI0
aI0
aI2
aa(lp14
I3
aI0
aI0
aI2
aa(lp15
I6
aI0
aI0
aI2
aa(lp16
I4
aI0
aI0
aI2
aa(lp17
I6
aI0
aI0
aI2
aa(lp18
I4
aI0
aI0
aI2
aa.