(lp1
(lp2
I3
aI0
aI0
aI2
aa(lp3
I4
aI0
aI0
aI2
aa(lp4
I3
aI0
aI0
aI2
aa(lp5
I3
aI0
aI0
aI2
aa(lp6
I3
aI0
aI0
aI2
aa(lp7
I4
aI0
aI0
aI2
aa(lp8
I4
aI0
aI0
aI2
aa(lp9
I3
aI0
aI0
aI2
aa(lp10
I4
aI0
aI0
aI2
aa(lp11
I3
aI0
aI0
aI2
aa(lp12
I4
aI0
aI0
aI2
aa(lp13
I3
aI0
aI0
aI2
aa.