(lp1
(lp2
I3
aI1
aI0
aI2
aa(lp3
I3
aI1
aI0
aI0
aa(lp4
I3
aI1
aI0
aI0
aa(lp5
I3
aI1
aI0
aI2
aa(lp6
I3
aI1
aI0
aI2
aa(lp7
I4
aI1
aI0
aI2
aa(lp8
I3
aI1
aI0
aI0
aa(lp9
I6
aI4
aI0
aI0
aa(lp10
I3
aI1
aI0
aI0
aa(lp11
I4
aI1
aI0
aI0
aa(lp12
I3
aI1
aI0
aI0
aa(lp13
I3
aI1
aI0
aI0
aa(lp14
I3
aI1
aI0
aI0
aa(lp15
I3
aI1
aI0
aI2
aa(lp16
I4
aI2
aI0
aI2
aa(lp17
I5
aI2
aI0
aI0
aa(lp18
I3
aI1
aI0
aI0
aa(lp19
I4
aI1
aI0
aI0
aa(lp20
I3
aI1
aI0
aI0
aa(lp21
I3
aI1
aI0
aI2
aa(lp22
I3
aI1
aI0
aI2
aa(lp23
I3
aI1
aI0
aI0
aa(lp24
I3
aI1
aI0
aI0
aa(lp25
I3
aI1
aI0
aI0
aa(lp26
I3
aI1
aI0
aI0
aa(lp27
I4
aI1
aI0
aI2
aa(lp28
I3
aI1
aI0
aI2
aa.