(lp1
(lp2
I3
aI0
aI0
aI0
aa(lp3
I4
aI0
aI0
aI0
aa(lp4
I4
aI0
aI0
aI0
aa(lp5
I3
aI0
aI0
aI0
aa(lp6
I2
aI0
aI0
aI0
aa(lp7
I5
aI0
aI0
aI0
aa(lp8
I8
aI0
aI0
aI0
aa(lp9
I2
aI0
aI0
aI0
aa(lp10
I7
aI0
aI0
aI0
aa(lp11
I2
aI0
aI0
aI0
aa(lp12
I2
aI0
aI0
aI0
aa(lp13
I6
aI0
aI0
aI0
aa(lp14
I2
aI0
aI0
aI0
aa(lp15
I2
aI0
aI0
aI0
aa(lp16
I3
aI1
aI0
aI2
aa(lp17
I4
aI2
aI0
aI4
aa(lp18
I2
aI0
aI0
aI0
aa(lp19
I23
aI7
aI0
aI24
aa(lp20
I8
aI0
aI0
aI0
aa(lp21
I7
aI0
aI0
aI0
aa(lp22
I9
aI0
aI0
aI0
aa(lp23
I2
aI0
aI0
aI0
aa(lp24
I2
aI0
aI0
aI0
aa(lp25
I4
aI2
aI0
aI4
aa(lp26
I6
aI0
aI0
aI0
aa(lp27
I2
aI0
aI0
aI0
aa(lp28
I8
aI4
aI0
aI8
aa(lp29
I12
aI6
aI0
aI12
aa(lp30
I5
aI0
aI0
aI0
aa(lp31
I2
aI0
aI0
aI0
aa(lp32
I7
aI4
aI0
aI6
aa(lp33
I8
aI0
aI0
aI0
aa(lp34
I2
aI0
aI0
aI0
aa(lp35
I6
aI0
aI0
aI0
aa(lp36
I9
aI0
aI0
aI0
aa(lp37
I3
aI0
aI0
aI0
aa(lp38
I15
aI7
aI0
aI14
aa(lp39
I2
aI0
aI0
aI0
aa(lp40
I4
aI2
aI0
aI4
aa(lp41
I4
aI0
aI0
aI0
aa(lp42
I3
aI0
aI0
aI0
aa(lp43
I14
aI7
aI0
aI14
aa(lp44
I8
aI4
aI0
aI8
aa(lp45
I5
aI0
aI0
aI0
aa(lp46
I15
aI0
aI0
aI0
aa(lp47
I3
aI0
aI0
aI0
aa(lp48
I5
aI1
aI0
aI2
aa(lp49
I7
aI0
aI0
aI0
aa(lp50
I3
aI0
aI0
aI0
aa(lp51
I2
aI0
aI0
aI0
aa(lp52
I3
aI0
aI0
aI0
aa(lp53
I5
aI0
aI0
aI0
aa(lp54
I4
aI0
aI0
aI0
aa.