(lp1
(lp2
I7
aI0
aI0
aI2
aa(lp3
I6
aI0
aI0
aI2
aa(lp4
I5
aI0
aI0
aI2
aa(lp5
I6
aI0
aI0
aI2
aa(lp6
I7
aI0
aI0
aI2
aa(lp7
I6
aI0
aI0
aI2
aa(lp8
I5
aI0
aI0
aI2
aa(lp9
I7
aI0
aI0
aI2
aa(lp10
I7
aI0
aI0
aI2
aa(lp11
I6
aI0
aI0
aI2
aa(lp12
I4
aI0
aI0
aI2
aa(lp13
I5
aI0
aI0
aI2
aa.