(lp1
(lp2
I2
aI0
aI0
aI0
aa(lp3
I6
aI3
aI0
aI6
aa(lp4
I4
aI2
aI0
aI4
aa(lp5
I2
aI0
aI0
aI0
aa(lp6
I2
aI0
aI0
aI0
aa(lp7
I2
aI0
aI0
aI0
aa(lp8
I2
aI0
aI0
aI0
aa(lp9
I5
aI0
aI0
aI0
aa(lp10
I4
aI2
aI0
aI4
aa(lp11
I3
aI0
aI0
aI0
aa(lp12
I2
aI0
aI0
aI0
aa(lp13
I7
aI0
aI0
aI0
aa(lp14
I3
aI0
aI0
aI0
aa(lp15
I3
aI0
aI0
aI0
aa(lp16
I2
aI0
aI0
aI0
aa(lp17
I3
aI0
aI0
aI0
aa(lp18
I6
aI3
aI0
aI6
aa(lp19
I5
aI0
aI0
aI0
aa(lp20
I3
aI0
aI0
aI0
aa(lp21
I4
aI2
aI0
aI4
aa(lp22
I2
aI0
aI0
aI0
aa(lp23
I6
aI0
aI0
aI0
aa(lp24
I7
aI0
aI0
aI0
aa.