(lp1
(lp2
I4
aI0
aI0
aI2
aa(lp3
I6
aI0
aI0
aI2
aa(lp4
I4
aI0
aI0
aI2
aa(lp5
I4
aI0
aI0
aI2
aa(lp6
I3
aI0
aI0
aI2
aa(lp7
I3
aI0
aI0
aI2
aa(lp8
I3
aI0
aI0
aI2
aa(lp9
I4
aI0
aI0
aI2
aa(lp10
I3
aI0
aI0
aI2
aa(lp11
I5
aI0
aI0
aI2
aa(lp12
I3
aI0
aI0
aI2
aa(lp13
I3
aI0
aI0
aI2
aa(lp14
I4
aI0
aI0
aI2
aa(lp15
I4
aI0
aI0
aI2
aa(lp16
I4
aI0
aI0
aI2
aa(lp17
I5
aI0
aI0
aI2
aa(lp18
I3
aI0
aI0
aI2
aa(lp19
I3
aI0
aI0
aI2
aa(lp20
I3
aI0
aI0
aI2
aa(lp21
I5
aI0
aI0
aI2
aa(lp22
I4
aI0
aI0
aI2
aa(lp23
I3
aI0
aI0
aI2
aa(lp24
I4
aI0
aI0
aI2
aa.